target datalayout = "e-m:e-p270:32:32-p271:32:32-p272:64:64-i64:64-i128:128-f80:128-n8:16:32:64-S128"
target triple = "x86_64-pc-linux-gnu"

%struct.OnigSyntaxType = type { i32, i32, i32, i32, %struct.OnigMetaCharTableType }
%struct.OnigMetaCharTableType = type { i32, i32, i32, i32, i32, i32 }
%struct.ParseEnv = type { i32, i32, ptr, ptr, i32, i32, i32, ptr, ptr, ptr, ptr, ptr, i32, i32, i32, i32, [8 x %struct.MemEnv], ptr, i32, i32, i32, i32, ptr, ptr, i32, i32 }
%struct.MemEnv = type { ptr, ptr }

@onig_warn = internal global ptr @onig_null_warn, align 8
@.str.1 = private unnamed_addr constant [43 x i8] c"regular expression has '%s' without escape\00", align 1

; Function Attrs: nounwind uwtable
define internal void @CLOSE_BRACKET_WITHOUT_ESC_WARN(ptr noundef %0, ptr noundef %1) #0 {
  %3 = alloca ptr, align 8
  %4 = alloca ptr, align 8
  %5 = alloca [256 x i8], align 16
  store ptr %0, ptr %3, align 8, !tbaa !9
  store ptr %1, ptr %4, align 8, !tbaa !4
  %6 = load ptr, ptr @onig_warn, align 8, !tbaa !9
  %7 = icmp eq ptr %6, @onig_null_warn
  br i1 %7, label %8, label %9

8:                                                ; preds = %2
  br label %31

9:                                                ; preds = %2
  %10 = load ptr, ptr %3, align 8, !tbaa !9
  %11 = getelementptr inbounds nuw %struct.ParseEnv, ptr %10, i32 0, i32 3
  %12 = load ptr, ptr %11, align 8, !tbaa !158
  %13 = getelementptr inbounds nuw %struct.OnigSyntaxType, ptr %12, i32 0, i32 2
  %14 = load i32, ptr %13, align 4, !tbaa !71
  %15 = and i32 %14, 16777216
  %16 = icmp ne i32 %15, 0
  br i1 %16, label %17, label %31

17:                                               ; preds = %9
  call void @llvm.lifetime.start.p0(i64 256, ptr %5) #8
  %18 = getelementptr inbounds [256 x i8], ptr %5, i64 0, i64 0
  %19 = load ptr, ptr %3, align 8, !tbaa !9
  %20 = getelementptr inbounds nuw %struct.ParseEnv, ptr %19, i32 0, i32 2
  %21 = load ptr, ptr %20, align 8, !tbaa !157
  %22 = load ptr, ptr %3, align 8, !tbaa !9
  %23 = getelementptr inbounds nuw %struct.ParseEnv, ptr %22, i32 0, i32 7
  %24 = load ptr, ptr %23, align 8, !tbaa !159
  %25 = load ptr, ptr %3, align 8, !tbaa !9
  %26 = getelementptr inbounds nuw %struct.ParseEnv, ptr %25, i32 0, i32 8
  %27 = load ptr, ptr %26, align 8, !tbaa !160
  %28 = load ptr, ptr %4, align 8, !tbaa !4
  call void (ptr, i32, ptr, ptr, ptr, ptr, ...) @onig_snprintf_with_pattern(ptr noundef %18, i32 noundef 256, ptr noundef %21, ptr noundef %24, ptr noundef %27, ptr noundef @.str.1, ptr noundef %28)
  %29 = load ptr, ptr @onig_warn, align 8, !tbaa !9
  %30 = getelementptr inbounds [256 x i8], ptr %5, i64 0, i64 0
  call void %29(ptr noundef %30)
  call void @llvm.lifetime.end.p0(i64 256, ptr %5) #8
  br label %31

31:                                               ; preds = %8, %17, %9
  ret void
}